target datalayout = "e-m:e-p270:32:32-p271:32:32-p272:64:64-i64:64-i128:128-f80:128-n8:16:32:64-S128"
target triple = "x86_64-pc-linux-gnu"

%struct.FunctionCallInfoBaseData = type { ptr, ptr, ptr, i32, i8, i16, [0 x %struct.NullableDatum] }
%struct.NullableDatum = type { i64, i8 }
%struct.ItemPointerData = type { %struct.BlockIdData, i16 }
%struct.BlockIdData = type { i16, i16 }

; Function Attrs: inlinehint nounwind uwtable
define internal i64 @PointerGetDatum(ptr noundef %0) #2 {
  %2 = alloca ptr, align 8
  store ptr %0, ptr %2, align 8
  %3 = load ptr, ptr %2, align 8
  %4 = ptrtoint ptr %3 to i64
  ret i64 %4
}

; Function Attrs: inlinehint nounwind uwtable
define internal void @BlockIdSet(ptr noundef %0, i32 noundef %1) #2 {
  %3 = alloca ptr, align 8
  %4 = alloca i32, align 4
  store ptr %0, ptr %3, align 8
  store i32 %1, ptr %4, align 4
  %5 = load i32, ptr %4, align 4
  %6 = lshr i32 %5, 16
  %7 = trunc i32 %6 to i16
  %8 = load ptr, ptr %3, align 8
  %9 = getelementptr inbounds nuw %struct.BlockIdData, ptr %8, i32 0, i32 0
  store i16 %7, ptr %9, align 2
  %10 = load i32, ptr %4, align 4
  %11 = and i32 %10, 65535
  %12 = trunc i32 %11 to i16
  %13 = load ptr, ptr %3, align 8
  %14 = getelementptr inbounds nuw %struct.BlockIdData, ptr %13, i32 0, i32 1
  store i16 %12, ptr %14, align 2
  ret void
}

; Function Attrs: inlinehint nounwind uwtable
define internal i64 @ItemPointerGetDatum(ptr noundef %0) #2 {
  %2 = alloca ptr, align 8
  store ptr %0, ptr %2, align 8
  %3 = load ptr, ptr %2, align 8
  %4 = call i64 @PointerGetDatum(ptr noundef %3)
  ret i64 %4
}

; Function Attrs: inlinehint nounwind uwtable
define internal void @ItemPointerSet(ptr noundef %0, i32 noundef %1, i16 noundef zeroext %2) #2 {
  %4 = alloca ptr, align 8
  %5 = alloca i32, align 4
  %6 = alloca i16, align 2
  store ptr %0, ptr %4, align 8
  store i32 %1, ptr %5, align 4
  store i16 %2, ptr %6, align 2
  %7 = load ptr, ptr %4, align 8
  %8 = getelementptr inbounds nuw %struct.ItemPointerData, ptr %7, i32 0, i32 0
  %9 = load i32, ptr %5, align 4
  call void @BlockIdSet(ptr noundef %8, i32 noundef %9)
  %10 = load i16, ptr %6, align 2
  %11 = load ptr, ptr %4, align 8
  %12 = getelementptr inbounds nuw %struct.ItemPointerData, ptr %11, i32 0, i32 1
  store i16 %10, ptr %12, align 2
  ret void
}

; Function Attrs: inlinehint nounwind uwtable
define internal ptr @DatumGetPointer(i64 noundef %0) #2 {
  %2 = alloca i64, align 8
  store i64 %0, ptr %2, align 8
  %3 = load i64, ptr %2, align 8
  %4 = inttoptr i64 %3 to ptr
  ret ptr %4
}

; Function Attrs: nounwind uwtable
define dso_local i64 @tidrecv(ptr noundef %0) #0 {
  %2 = alloca ptr, align 8
  %3 = alloca ptr, align 8
  %4 = alloca ptr, align 8
  %5 = alloca i32, align 4
  %6 = alloca i16, align 2
  store ptr %0, ptr %2, align 8
  call void @llvm.lifetime.start.p0(i64 8, ptr %3) #10
  %7 = load ptr, ptr %2, align 8
  %8 = getelementptr inbounds nuw %struct.FunctionCallInfoBaseData, ptr %7, i32 0, i32 6
  %9 = getelementptr inbounds [0 x %struct.NullableDatum], ptr %8, i64 0, i64 0
  %10 = getelementptr inbounds nuw %struct.NullableDatum, ptr %9, i32 0, i32 0
  %11 = load i64, ptr %10, align 8
  %12 = call ptr @DatumGetPointer(i64 noundef %11)
  store ptr %12, ptr %3, align 8
  call void @llvm.lifetime.start.p0(i64 8, ptr %4) #10
  call void @llvm.lifetime.start.p0(i64 4, ptr %5) #10
  call void @llvm.lifetime.start.p0(i64 2, ptr %6) #10
  %13 = load ptr, ptr %3, align 8
  %14 = call i32 @pq_getmsgint(ptr noundef %13, i32 noundef 4)
  store i32 %14, ptr %5, align 4
  %15 = load ptr, ptr %3, align 8
  %16 = call i32 @pq_getmsgint(ptr noundef %15, i32 noundef 2)
  %17 = trunc i32 %16 to i16
  store i16 %17, ptr %6, align 2
  %18 = call ptr @palloc(i64 noundef 6)
  store ptr %18, ptr %4, align 8
  %19 = load ptr, ptr %4, align 8
  %20 = load i32, ptr %5, align 4
  %21 = load i16, ptr %6, align 2
  call void @ItemPointerSet(ptr noundef %19, i32 noundef %20, i16 noundef zeroext %21)
  %22 = load ptr, ptr %4, align 8
  %23 = call i64 @ItemPointerGetDatum(ptr noundef %22)
  call void @llvm.lifetime.end.p0(i64 2, ptr %6) #10
  call void @llvm.lifetime.end.p0(i64 4, ptr %5) #10
  call void @llvm.lifetime.end.p0(i64 8, ptr %4) #10
  call void @llvm.lifetime.end.p0(i64 8, ptr %3) #10
  ret i64 %23
}