; Function Attrs: nounwind uwtable
define dso_local noundef i64 @tidrecv(ptr noundef readonly captures(none) %0) local_unnamed_addr #0 {
  %2 = getelementptr inbounds nuw i8, ptr %0, i64 32
  %3 = load i64, ptr %2, align 8
  %4 = inttoptr i64 %3 to ptr
  %5 = tail call i32 @pq_getmsgint(ptr noundef %4, i32 noundef 4) #11
  %6 = tail call i32 @pq_getmsgint(ptr noundef %4, i32 noundef 2) #11
  %7 = trunc i32 %6 to i16
  %8 = tail call ptr @palloc(i64 noundef 6) #11
  %9 = lshr i32 %5, 16
  %10 = trunc nuw i32 %9 to i16
  store i16 %10, ptr %8, align 2
  %11 = trunc i32 %5 to i16
  %12 = getelementptr inbounds nuw i8, ptr %8, i64 2
  store i16 %11, ptr %12, align 2
  %13 = getelementptr inbounds nuw i8, ptr %8, i64 4
  store i16 %7, ptr %13, align 2
  %14 = ptrtoint ptr %8 to i64
  ret i64 %14
}